; Function Attrs: mustprogress nofree norecurse nosync nounwind willreturn memory(argmem: read) uwtable
define i32 @lv_indev_get_key(ptr noundef readonly captures(address_is_null) %0) local_unnamed_addr #6 {
  %.not = icmp eq ptr %0, null
  br i1 %.not, label %8, label %2

2:                                                ; preds = %1
  %3 = load i32, ptr %0, align 8, !tbaa !23
  %4 = icmp eq i32 %3, 2
  br i1 %4, label %5, label %8

5:                                                ; preds = %2
  %6 = getelementptr inbounds nuw i8, ptr %0, i64 236
  %7 = load i32, ptr %6, align 4, !tbaa !81
  br label %8

8:                                                ; preds = %5, %2, %1
  %.0 = phi i32 [ %7, %5 ], [ 0, %2 ], [ 0, %1 ]
  ret i32 %.0
}